; Function Attrs: nounwind uwtable
define void @evtag_marshal_timeval(ptr noundef %0, i32 noundef %1, ptr noundef readonly captures(none) %2) local_unnamed_addr #1 {
  %4 = alloca [10 x i8], align 1
  call void @llvm.lifetime.start.p0(i64 10, ptr nonnull %4) #7
  %5 = load i64, ptr %2, align 8
  %6 = trunc i64 %5 to i32
  call void @llvm.memset.p0.i64(ptr noundef nonnull align 1 dereferenceable(5) %4, i8 0, i64 5, i1 false)
  %.not23.i = icmp eq i32 %6, 0
  br i1 %.not23.i, label %encode_int_internal.exit, label %.lr.ph.i

.lr.ph.i:                                         ; preds = %3, %20
  %.02025.i = phi i32 [ %22, %20 ], [ 1, %3 ]
  %.02124.i = phi i32 [ %21, %20 ], [ %6, %3 ]
  %7 = and i32 %.02025.i, 1
  %.not22.i = icmp eq i32 %7, 0
  %8 = lshr i32 %.02025.i, 1
  %9 = zext nneg i32 %8 to i64
  %10 = getelementptr inbounds nuw i8, ptr %4, i64 %9
  %11 = load i8, ptr %10, align 1
  %.021.tr.i = trunc i32 %.02124.i to i8
  br i1 %.not22.i, label %16, label %12

12:                                               ; preds = %.lr.ph.i
  %13 = and i8 %11, -16
  %14 = and i8 %.021.tr.i, 15
  %15 = or disjoint i8 %13, %14
  br label %20

16:                                               ; preds = %.lr.ph.i
  %17 = and i8 %11, 15
  %18 = shl i8 %.021.tr.i, 4
  %19 = or disjoint i8 %17, %18
  br label %20

20:                                               ; preds = %16, %12
  %.sink.i = phi i8 [ %19, %16 ], [ %15, %12 ]
  store i8 %.sink.i, ptr %10, align 1
  %21 = lshr i32 %.02124.i, 4
  %22 = add nuw nsw i32 %.02025.i, 1
  %.not.i = icmp ult i32 %.02124.i, 16
  br i1 %.not.i, label %._crit_edge.i, label %.lr.ph.i, !llvm.loop !3

._crit_edge.i:                                    ; preds = %20
  %.pre.i = load i8, ptr %4, align 1
  %23 = and i8 %.pre.i, 15
  %24 = icmp samesign ugt i32 %.02025.i, 1
  %.020.tr.i = trunc i32 %22 to i8
  %25 = shl i8 %.020.tr.i, 4
  %26 = add i8 %25, -32
  %spec.select.i = select i1 %24, i8 %26, i8 0
  %27 = or disjoint i8 %23, %spec.select.i
  %28 = add nuw i32 %.02025.i, 2
  %29 = lshr i32 %28, 1
  br label %encode_int_internal.exit

encode_int_internal.exit:                         ; preds = %3, %._crit_edge.i
  %.020.lcssa29.i = phi i32 [ 1, %3 ], [ %29, %._crit_edge.i ]
  %30 = phi i8 [ 0, %3 ], [ %27, %._crit_edge.i ]
  store i8 %30, ptr %4, align 1
  %31 = zext nneg i32 %.020.lcssa29.i to i64
  %32 = getelementptr inbounds nuw i8, ptr %4, i64 %31
  %33 = getelementptr inbounds nuw i8, ptr %2, i64 8
  %34 = load i64, ptr %33, align 8
  %35 = trunc i64 %34 to i32
  call void @llvm.memset.p0.i64(ptr noundef nonnull align 1 dereferenceable(5) %32, i8 0, i64 5, i1 false)
  %.not23.i6 = icmp eq i32 %35, 0
  br i1 %.not23.i6, label %encode_int_internal.exit19, label %.lr.ph.i7

.lr.ph.i7:                                        ; preds = %encode_int_internal.exit, %49
  %.02025.i8 = phi i32 [ %51, %49 ], [ 1, %encode_int_internal.exit ]
  %.02124.i9 = phi i32 [ %50, %49 ], [ %35, %encode_int_internal.exit ]
  %36 = and i32 %.02025.i8, 1
  %.not22.i10 = icmp eq i32 %36, 0
  %37 = lshr i32 %.02025.i8, 1
  %38 = zext nneg i32 %37 to i64
  %39 = getelementptr inbounds nuw i8, ptr %32, i64 %38
  %40 = load i8, ptr %39, align 1
  %.021.tr.i11 = trunc i32 %.02124.i9 to i8
  br i1 %.not22.i10, label %45, label %41

41:                                               ; preds = %.lr.ph.i7
  %42 = and i8 %40, -16
  %43 = and i8 %.021.tr.i11, 15
  %44 = or disjoint i8 %42, %43
  br label %49

45:                                               ; preds = %.lr.ph.i7
  %46 = and i8 %40, 15
  %47 = shl i8 %.021.tr.i11, 4
  %48 = or disjoint i8 %46, %47
  br label %49

49:                                               ; preds = %45, %41
  %.sink.i12 = phi i8 [ %48, %45 ], [ %44, %41 ]
  store i8 %.sink.i12, ptr %39, align 1
  %50 = lshr i32 %.02124.i9, 4
  %51 = add nuw nsw i32 %.02025.i8, 1
  %.not.i13 = icmp ult i32 %.02124.i9, 16
  br i1 %.not.i13, label %._crit_edge.i14, label %.lr.ph.i7, !llvm.loop !3

._crit_edge.i14:                                  ; preds = %49
  %.pre.i15 = load i8, ptr %32, align 1
  %52 = and i8 %.pre.i15, 15
  %53 = icmp samesign ugt i32 %.02025.i8, 1
  %.020.tr.i16 = trunc i32 %51 to i8
  %54 = shl i8 %.020.tr.i16, 4
  %55 = add i8 %54, -32
  %spec.select.i17 = select i1 %53, i8 %55, i8 0
  %56 = or disjoint i8 %52, %spec.select.i17
  %57 = add nuw i32 %.02025.i8, 2
  %58 = lshr i32 %57, 1
  br label %encode_int_internal.exit19

encode_int_internal.exit19:                       ; preds = %encode_int_internal.exit, %._crit_edge.i14
  %.020.lcssa29.i18 = phi i32 [ 1, %encode_int_internal.exit ], [ %58, %._crit_edge.i14 ]
  %59 = phi i8 [ 0, %encode_int_internal.exit ], [ %56, %._crit_edge.i14 ]
  store i8 %59, ptr %32, align 1
  %60 = add nuw nsw i32 %.020.lcssa29.i18, %.020.lcssa29.i
  call void @evtag_marshal(ptr noundef %0, i32 noundef %1, ptr noundef nonnull %4, i32 noundef %60)
  call void @llvm.lifetime.end.p0(i64 10, ptr nonnull %4) #7
  ret void
}